; Function Attrs: nounwind uwtable
define hidden ptr @mi_reallocarray(ptr noundef %0, i64 noundef %1, i64 noundef %2) local_unnamed_addr #0 {
  %4 = tail call ptr @mi_reallocn(ptr noundef %0, i64 noundef %1, i64 noundef %2) #8
  %5 = icmp eq ptr %4, null
  br i1 %5, label %6, label %8

6:                                                ; preds = %3
  %7 = tail call ptr @__errno_location() #9
  store i32 12, ptr %7, align 4, !tbaa !8
  br label %8

8:                                                ; preds = %6, %3
  ret ptr %4
}